target datalayout = "e-m:e-p270:32:32-p271:32:32-p272:64:64-i64:64-i128:128-f80:128-n8:16:32:64-S128"
target triple = "x86_64-pc-linux-gnu"

%struct.ct_data_s = type { %union.anon, %union.anon.0 }
%union.anon = type { i16 }
%union.anon.0 = type { i16 }
%struct.internal_state = type { ptr, i32, ptr, i64, ptr, i64, i32, ptr, i64, i8, i32, i32, i32, i32, ptr, i64, ptr, ptr, i32, i32, i32, i32, i32, i64, i32, i32, i32, i32, i32, i32, i32, i32, i32, i32, i32, i32, i32, [573 x %struct.ct_data_s], [61 x %struct.ct_data_s], [39 x %struct.ct_data_s], %struct.tree_desc_s, %struct.tree_desc_s, %struct.tree_desc_s, [16 x i16], [573 x i32], i32, i32, [573 x i8], ptr, i32, i32, i32, i64, i64, i32, i32, i16, i32, i64 }
%struct.tree_desc_s = type { ptr, i32, ptr }

; Function Attrs: nounwind uwtable
define internal void @bi_flush(ptr noundef %0) #0 {
  %2 = alloca ptr, align 8
  store ptr %0, ptr %2, align 8
  %3 = load ptr, ptr %2, align 8
  %4 = getelementptr inbounds %struct.internal_state, ptr %3, i32 0, i32 57
  %5 = load i32, ptr %4, align 4
  %6 = icmp eq i32 %5, 16
  br i1 %6, label %7, label %40

7:                                                ; preds = %1
  %8 = load ptr, ptr %2, align 8
  %9 = getelementptr inbounds %struct.internal_state, ptr %8, i32 0, i32 56
  %10 = load i16, ptr %9, align 8
  %11 = zext i16 %10 to i32
  %12 = and i32 %11, 255
  %13 = trunc i32 %12 to i8
  %14 = load ptr, ptr %2, align 8
  %15 = getelementptr inbounds %struct.internal_state, ptr %14, i32 0, i32 2
  %16 = load ptr, ptr %15, align 8
  %17 = load ptr, ptr %2, align 8
  %18 = getelementptr inbounds %struct.internal_state, ptr %17, i32 0, i32 5
  %19 = load i64, ptr %18, align 8
  %20 = add i64 %19, 1
  store i64 %20, ptr %18, align 8
  %21 = getelementptr inbounds i8, ptr %16, i64 %19
  store i8 %13, ptr %21, align 1
  %22 = load ptr, ptr %2, align 8
  %23 = getelementptr inbounds %struct.internal_state, ptr %22, i32 0, i32 56
  %24 = load i16, ptr %23, align 8
  %25 = zext i16 %24 to i32
  %26 = ashr i32 %25, 8
  %27 = trunc i32 %26 to i8
  %28 = load ptr, ptr %2, align 8
  %29 = getelementptr inbounds %struct.internal_state, ptr %28, i32 0, i32 2
  %30 = load ptr, ptr %29, align 8
  %31 = load ptr, ptr %2, align 8
  %32 = getelementptr inbounds %struct.internal_state, ptr %31, i32 0, i32 5
  %33 = load i64, ptr %32, align 8
  %34 = add i64 %33, 1
  store i64 %34, ptr %32, align 8
  %35 = getelementptr inbounds i8, ptr %30, i64 %33
  store i8 %27, ptr %35, align 1
  %36 = load ptr, ptr %2, align 8
  %37 = getelementptr inbounds %struct.internal_state, ptr %36, i32 0, i32 56
  store i16 0, ptr %37, align 8
  %38 = load ptr, ptr %2, align 8
  %39 = getelementptr inbounds %struct.internal_state, ptr %38, i32 0, i32 57
  store i32 0, ptr %39, align 4
  br label %69

40:                                               ; preds = %1
  %41 = load ptr, ptr %2, align 8
  %42 = getelementptr inbounds %struct.internal_state, ptr %41, i32 0, i32 57
  %43 = load i32, ptr %42, align 4
  %44 = icmp sge i32 %43, 8
  br i1 %44, label %45, label %68

45:                                               ; preds = %40
  %46 = load ptr, ptr %2, align 8
  %47 = getelementptr inbounds %struct.internal_state, ptr %46, i32 0, i32 56
  %48 = load i16, ptr %47, align 8
  %49 = trunc i16 %48 to i8
  %50 = load ptr, ptr %2, align 8
  %51 = getelementptr inbounds %struct.internal_state, ptr %50, i32 0, i32 2
  %52 = load ptr, ptr %51, align 8
  %53 = load ptr, ptr %2, align 8
  %54 = getelementptr inbounds %struct.internal_state, ptr %53, i32 0, i32 5
  %55 = load i64, ptr %54, align 8
  %56 = add i64 %55, 1
  store i64 %56, ptr %54, align 8
  %57 = getelementptr inbounds i8, ptr %52, i64 %55
  store i8 %49, ptr %57, align 1
  %58 = load ptr, ptr %2, align 8
  %59 = getelementptr inbounds %struct.internal_state, ptr %58, i32 0, i32 56
  %60 = load i16, ptr %59, align 8
  %61 = zext i16 %60 to i32
  %62 = ashr i32 %61, 8
  %63 = trunc i32 %62 to i16
  store i16 %63, ptr %59, align 8
  %64 = load ptr, ptr %2, align 8
  %65 = getelementptr inbounds %struct.internal_state, ptr %64, i32 0, i32 57
  %66 = load i32, ptr %65, align 4
  %67 = sub nsw i32 %66, 8
  store i32 %67, ptr %65, align 4
  br label %68

68:                                               ; preds = %45, %40
  br label %69

69:                                               ; preds = %68, %7
  ret void
}

; Function Attrs: nounwind uwtable
define dso_local void @cm_zlib__tr_align(ptr noundef %0) #0 {
  %2 = alloca ptr, align 8
  %3 = alloca i32, align 4
  %4 = alloca i32, align 4
  %5 = alloca i32, align 4
  %6 = alloca i32, align 4
  store ptr %0, ptr %2, align 8
  store i32 3, ptr %3, align 4
  %7 = load ptr, ptr %2, align 8
  %8 = getelementptr inbounds %struct.internal_state, ptr %7, i32 0, i32 57
  %9 = load i32, ptr %8, align 4
  %10 = load i32, ptr %3, align 4
  %11 = sub nsw i32 16, %10
  %12 = icmp sgt i32 %9, %11
  br i1 %12, label %13, label %72

13:                                               ; preds = %1
  store i32 2, ptr %4, align 4
  %14 = load i32, ptr %4, align 4
  %15 = trunc i32 %14 to i16
  %16 = zext i16 %15 to i32
  %17 = load ptr, ptr %2, align 8
  %18 = getelementptr inbounds %struct.internal_state, ptr %17, i32 0, i32 57
  %19 = load i32, ptr %18, align 4
  %20 = shl i32 %16, %19
  %21 = load ptr, ptr %2, align 8
  %22 = getelementptr inbounds %struct.internal_state, ptr %21, i32 0, i32 56
  %23 = load i16, ptr %22, align 8
  %24 = zext i16 %23 to i32
  %25 = or i32 %24, %20
  %26 = trunc i32 %25 to i16
  store i16 %26, ptr %22, align 8
  %27 = load ptr, ptr %2, align 8
  %28 = getelementptr inbounds %struct.internal_state, ptr %27, i32 0, i32 56
  %29 = load i16, ptr %28, align 8
  %30 = zext i16 %29 to i32
  %31 = and i32 %30, 255
  %32 = trunc i32 %31 to i8
  %33 = load ptr, ptr %2, align 8
  %34 = getelementptr inbounds %struct.internal_state, ptr %33, i32 0, i32 2
  %35 = load ptr, ptr %34, align 8
  %36 = load ptr, ptr %2, align 8
  %37 = getelementptr inbounds %struct.internal_state, ptr %36, i32 0, i32 5
  %38 = load i64, ptr %37, align 8
  %39 = add i64 %38, 1
  store i64 %39, ptr %37, align 8
  %40 = getelementptr inbounds i8, ptr %35, i64 %38
  store i8 %32, ptr %40, align 1
  %41 = load ptr, ptr %2, align 8
  %42 = getelementptr inbounds %struct.internal_state, ptr %41, i32 0, i32 56
  %43 = load i16, ptr %42, align 8
  %44 = zext i16 %43 to i32
  %45 = ashr i32 %44, 8
  %46 = trunc i32 %45 to i8
  %47 = load ptr, ptr %2, align 8
  %48 = getelementptr inbounds %struct.internal_state, ptr %47, i32 0, i32 2
  %49 = load ptr, ptr %48, align 8
  %50 = load ptr, ptr %2, align 8
  %51 = getelementptr inbounds %struct.internal_state, ptr %50, i32 0, i32 5
  %52 = load i64, ptr %51, align 8
  %53 = add i64 %52, 1
  store i64 %53, ptr %51, align 8
  %54 = getelementptr inbounds i8, ptr %49, i64 %52
  store i8 %46, ptr %54, align 1
  %55 = load i32, ptr %4, align 4
  %56 = trunc i32 %55 to i16
  %57 = zext i16 %56 to i32
  %58 = load ptr, ptr %2, align 8
  %59 = getelementptr inbounds %struct.internal_state, ptr %58, i32 0, i32 57
  %60 = load i32, ptr %59, align 4
  %61 = sub nsw i32 16, %60
  %62 = ashr i32 %57, %61
  %63 = trunc i32 %62 to i16
  %64 = load ptr, ptr %2, align 8
  %65 = getelementptr inbounds %struct.internal_state, ptr %64, i32 0, i32 56
  store i16 %63, ptr %65, align 8
  %66 = load i32, ptr %3, align 4
  %67 = sub nsw i32 %66, 16
  %68 = load ptr, ptr %2, align 8
  %69 = getelementptr inbounds %struct.internal_state, ptr %68, i32 0, i32 57
  %70 = load i32, ptr %69, align 4
  %71 = add nsw i32 %70, %67
  store i32 %71, ptr %69, align 4
  br label %88

72:                                               ; preds = %1
  %73 = load ptr, ptr %2, align 8
  %74 = getelementptr inbounds %struct.internal_state, ptr %73, i32 0, i32 57
  %75 = load i32, ptr %74, align 4
  %76 = shl i32 2, %75
  %77 = load ptr, ptr %2, align 8
  %78 = getelementptr inbounds %struct.internal_state, ptr %77, i32 0, i32 56
  %79 = load i16, ptr %78, align 8
  %80 = zext i16 %79 to i32
  %81 = or i32 %80, %76
  %82 = trunc i32 %81 to i16
  store i16 %82, ptr %78, align 8
  %83 = load i32, ptr %3, align 4
  %84 = load ptr, ptr %2, align 8
  %85 = getelementptr inbounds %struct.internal_state, ptr %84, i32 0, i32 57
  %86 = load i32, ptr %85, align 4
  %87 = add nsw i32 %86, %83
  store i32 %87, ptr %85, align 4
  br label %88

88:                                               ; preds = %72, %13
  %89 = getelementptr inbounds [288 x %struct.ct_data_s], ptr @static_ltree, i64 0, i64 256, i32 1
  %90 = load i16, ptr %89, align 2
  %91 = zext i16 %90 to i32
  store i32 %91, ptr %5, align 4
  %92 = load ptr, ptr %2, align 8
  %93 = getelementptr inbounds %struct.internal_state, ptr %92, i32 0, i32 57
  %94 = load i32, ptr %93, align 4
  %95 = load i32, ptr %5, align 4
  %96 = sub nsw i32 16, %95
  %97 = icmp sgt i32 %94, %96
  br i1 %97, label %98, label %160

98:                                               ; preds = %88
  %99 = getelementptr inbounds [288 x %struct.ct_data_s], ptr @static_ltree, i64 0, i64 256
  %100 = load i16, ptr %99, align 16
  %101 = zext i16 %100 to i32
  store i32 %101, ptr %6, align 4
  %102 = load i32, ptr %6, align 4
  %103 = trunc i32 %102 to i16
  %104 = zext i16 %103 to i32
  %105 = load ptr, ptr %2, align 8
  %106 = getelementptr inbounds %struct.internal_state, ptr %105, i32 0, i32 57
  %107 = load i32, ptr %106, align 4
  %108 = shl i32 %104, %107
  %109 = load ptr, ptr %2, align 8
  %110 = getelementptr inbounds %struct.internal_state, ptr %109, i32 0, i32 56
  %111 = load i16, ptr %110, align 8
  %112 = zext i16 %111 to i32
  %113 = or i32 %112, %108
  %114 = trunc i32 %113 to i16
  store i16 %114, ptr %110, align 8
  %115 = load ptr, ptr %2, align 8
  %116 = getelementptr inbounds %struct.internal_state, ptr %115, i32 0, i32 56
  %117 = load i16, ptr %116, align 8
  %118 = zext i16 %117 to i32
  %119 = and i32 %118, 255
  %120 = trunc i32 %119 to i8
  %121 = load ptr, ptr %2, align 8
  %122 = getelementptr inbounds %struct.internal_state, ptr %121, i32 0, i32 2
  %123 = load ptr, ptr %122, align 8
  %124 = load ptr, ptr %2, align 8
  %125 = getelementptr inbounds %struct.internal_state, ptr %124, i32 0, i32 5
  %126 = load i64, ptr %125, align 8
  %127 = add i64 %126, 1
  store i64 %127, ptr %125, align 8
  %128 = getelementptr inbounds i8, ptr %123, i64 %126
  store i8 %120, ptr %128, align 1
  %129 = load ptr, ptr %2, align 8
  %130 = getelementptr inbounds %struct.internal_state, ptr %129, i32 0, i32 56
  %131 = load i16, ptr %130, align 8
  %132 = zext i16 %131 to i32
  %133 = ashr i32 %132, 8
  %134 = trunc i32 %133 to i8
  %135 = load ptr, ptr %2, align 8
  %136 = getelementptr inbounds %struct.internal_state, ptr %135, i32 0, i32 2
  %137 = load ptr, ptr %136, align 8
  %138 = load ptr, ptr %2, align 8
  %139 = getelementptr inbounds %struct.internal_state, ptr %138, i32 0, i32 5
  %140 = load i64, ptr %139, align 8
  %141 = add i64 %140, 1
  store i64 %141, ptr %139, align 8
  %142 = getelementptr inbounds i8, ptr %137, i64 %140
  store i8 %134, ptr %142, align 1
  %143 = load i32, ptr %6, align 4
  %144 = trunc i32 %143 to i16
  %145 = zext i16 %144 to i32
  %146 = load ptr, ptr %2, align 8
  %147 = getelementptr inbounds %struct.internal_state, ptr %146, i32 0, i32 57
  %148 = load i32, ptr %147, align 4
  %149 = sub nsw i32 16, %148
  %150 = ashr i32 %145, %149
  %151 = trunc i32 %150 to i16
  %152 = load ptr, ptr %2, align 8
  %153 = getelementptr inbounds %struct.internal_state, ptr %152, i32 0, i32 56
  store i16 %151, ptr %153, align 8
  %154 = load i32, ptr %5, align 4
  %155 = sub nsw i32 %154, 16
  %156 = load ptr, ptr %2, align 8
  %157 = getelementptr inbounds %struct.internal_state, ptr %156, i32 0, i32 57
  %158 = load i32, ptr %157, align 4
  %159 = add nsw i32 %158, %155
  store i32 %159, ptr %157, align 4
  br label %179

160:                                              ; preds = %88
  %161 = getelementptr inbounds [288 x %struct.ct_data_s], ptr @static_ltree, i64 0, i64 256
  %162 = load i16, ptr %161, align 16
  %163 = zext i16 %162 to i32
  %164 = load ptr, ptr %2, align 8
  %165 = getelementptr inbounds %struct.internal_state, ptr %164, i32 0, i32 57
  %166 = load i32, ptr %165, align 4
  %167 = shl i32 %163, %166
  %168 = load ptr, ptr %2, align 8
  %169 = getelementptr inbounds %struct.internal_state, ptr %168, i32 0, i32 56
  %170 = load i16, ptr %169, align 8
  %171 = zext i16 %170 to i32
  %172 = or i32 %171, %167
  %173 = trunc i32 %172 to i16
  store i16 %173, ptr %169, align 8
  %174 = load i32, ptr %5, align 4
  %175 = load ptr, ptr %2, align 8
  %176 = getelementptr inbounds %struct.internal_state, ptr %175, i32 0, i32 57
  %177 = load i32, ptr %176, align 4
  %178 = add nsw i32 %177, %174
  store i32 %178, ptr %176, align 4
  br label %179

179:                                              ; preds = %160, %98
  %180 = load ptr, ptr %2, align 8
  call void @bi_flush(ptr noundef %180)
  ret void
}