; Function Attrs: mustprogress nofree norecurse nosync nounwind willreturn memory(write, argmem: readwrite, inaccessiblemem: none) uwtable
define dso_local void @cm_zlib__tr_align(ptr noundef captures(none) %0) local_unnamed_addr #3 {
  %2 = getelementptr inbounds nuw i8, ptr %0, i64 5940
  %3 = load i32, ptr %2, align 4
  %4 = icmp sgt i32 %3, 13
  %5 = shl i32 2, %3
  %6 = getelementptr inbounds nuw i8, ptr %0, i64 5936
  %7 = load i16, ptr %6, align 8
  %8 = trunc i32 %5 to i16
  %9 = or i16 %7, %8
  store i16 %9, ptr %6, align 8
  br i1 %4, label %10, label %30

10:                                               ; preds = %1
  %11 = trunc i16 %9 to i8
  %12 = getelementptr inbounds nuw i8, ptr %0, i64 16
  %13 = load ptr, ptr %12, align 8
  %14 = getelementptr inbounds nuw i8, ptr %0, i64 40
  %15 = load i64, ptr %14, align 8
  %16 = add i64 %15, 1
  store i64 %16, ptr %14, align 8
  %17 = getelementptr inbounds i8, ptr %13, i64 %15
  store i8 %11, ptr %17, align 1
  %18 = load i16, ptr %6, align 8
  %19 = lshr i16 %18, 8
  %20 = trunc nuw i16 %19 to i8
  %21 = load ptr, ptr %12, align 8
  %22 = load i64, ptr %14, align 8
  %23 = add i64 %22, 1
  store i64 %23, ptr %14, align 8
  %24 = getelementptr inbounds i8, ptr %21, i64 %22
  store i8 %20, ptr %24, align 1
  %25 = load i32, ptr %2, align 4
  %26 = sub nsw i32 16, %25
  %27 = lshr i32 2, %26
  %28 = trunc nuw nsw i32 %27 to i16
  store i16 %28, ptr %6, align 8
  %29 = add nsw i32 %25, -13
  br label %32

30:                                               ; preds = %1
  %31 = add nsw i32 %3, 3
  br label %32

32:                                               ; preds = %30, %10
  %33 = phi i16 [ %9, %30 ], [ %28, %10 ]
  %storemerge = phi i32 [ %31, %30 ], [ %29, %10 ]
  store i32 %storemerge, ptr %2, align 4
  %34 = icmp sgt i32 %storemerge, 9
  %35 = trunc i16 %33 to i8
  br i1 %34, label %36, label %53

36:                                               ; preds = %32
  %37 = getelementptr inbounds nuw i8, ptr %0, i64 5936
  %38 = getelementptr inbounds nuw i8, ptr %0, i64 16
  %39 = load ptr, ptr %38, align 8
  %40 = getelementptr inbounds nuw i8, ptr %0, i64 40
  %41 = load i64, ptr %40, align 8
  %42 = add i64 %41, 1
  store i64 %42, ptr %40, align 8
  %43 = getelementptr inbounds i8, ptr %39, i64 %41
  store i8 %35, ptr %43, align 1
  %44 = load i16, ptr %37, align 8
  %45 = lshr i16 %44, 8
  %46 = trunc nuw i16 %45 to i8
  %47 = load ptr, ptr %38, align 8
  %48 = load i64, ptr %40, align 8
  %49 = add i64 %48, 1
  store i64 %49, ptr %40, align 8
  %50 = getelementptr inbounds i8, ptr %47, i64 %48
  store i8 %46, ptr %50, align 1
  store i16 0, ptr %37, align 8
  %51 = load i32, ptr %2, align 4
  %52 = add nsw i32 %51, -9
  br label %55

53:                                               ; preds = %32
  %54 = add nsw i32 %storemerge, 7
  br label %55

55:                                               ; preds = %53, %36
  %56 = phi i8 [ %35, %53 ], [ 0, %36 ]
  %storemerge41 = phi i32 [ %54, %53 ], [ %52, %36 ]
  store i32 %storemerge41, ptr %2, align 4
  %57 = icmp eq i32 %storemerge41, 16
  br i1 %57, label %58, label %73

58:                                               ; preds = %55
  %59 = getelementptr inbounds nuw i8, ptr %0, i64 5936
  %60 = getelementptr inbounds nuw i8, ptr %0, i64 16
  %61 = load ptr, ptr %60, align 8
  %62 = getelementptr inbounds nuw i8, ptr %0, i64 40
  %63 = load i64, ptr %62, align 8
  %64 = add i64 %63, 1
  store i64 %64, ptr %62, align 8
  %65 = getelementptr inbounds i8, ptr %61, i64 %63
  store i8 %56, ptr %65, align 1
  %66 = load i16, ptr %59, align 8
  %67 = lshr i16 %66, 8
  %68 = trunc nuw i16 %67 to i8
  %69 = load ptr, ptr %60, align 8
  %70 = load i64, ptr %62, align 8
  %71 = add i64 %70, 1
  store i64 %71, ptr %62, align 8
  %72 = getelementptr inbounds i8, ptr %69, i64 %70
  store i8 %68, ptr %72, align 1
  store i16 0, ptr %59, align 8
  br label %.sink.split.i

73:                                               ; preds = %55
  %74 = icmp sgt i32 %storemerge41, 7
  br i1 %74, label %75, label %bi_flush.exit

75:                                               ; preds = %73
  %76 = getelementptr inbounds nuw i8, ptr %0, i64 5936
  %77 = getelementptr inbounds nuw i8, ptr %0, i64 16
  %78 = load ptr, ptr %77, align 8
  %79 = getelementptr inbounds nuw i8, ptr %0, i64 40
  %80 = load i64, ptr %79, align 8
  %81 = add i64 %80, 1
  store i64 %81, ptr %79, align 8
  %82 = getelementptr inbounds i8, ptr %78, i64 %80
  store i8 %56, ptr %82, align 1
  %83 = load i16, ptr %76, align 8
  %84 = lshr i16 %83, 8
  store i16 %84, ptr %76, align 8
  %85 = load i32, ptr %2, align 4
  %86 = add nsw i32 %85, -8
  br label %.sink.split.i

.sink.split.i:                                    ; preds = %75, %58
  %.sink.i = phi i32 [ %86, %75 ], [ 0, %58 ]
  store i32 %.sink.i, ptr %2, align 4
  br label %bi_flush.exit

bi_flush.exit:                                    ; preds = %73, %.sink.split.i
  ret void
}